target datalayout = "e-m:e-p270:32:32-p271:32:32-p272:64:64-i64:64-i128:128-f80:128-n8:16:32:64-S128"
target triple = "x86_64-pc-linux-gnu"

@.str.151 = private unnamed_addr constant [3 x i8] c"\\\\\00", align 1
@.str.152 = private unnamed_addr constant [2 x i8] c"'\00", align 1
@.str.153 = private unnamed_addr constant [3 x i8] c"\\\22\00", align 1
@.str.154 = private unnamed_addr constant [3 x i8] c"\\a\00", align 1
@.str.155 = private unnamed_addr constant [3 x i8] c"\\b\00", align 1
@.str.156 = private unnamed_addr constant [3 x i8] c"\\e\00", align 1
@.str.157 = private unnamed_addr constant [3 x i8] c"\\f\00", align 1
@.str.158 = private unnamed_addr constant [3 x i8] c"\\n\00", align 1
@.str.159 = private unnamed_addr constant [3 x i8] c"\\r\00", align 1
@.str.160 = private unnamed_addr constant [3 x i8] c"\\t\00", align 1
@.str.161 = private unnamed_addr constant [3 x i8] c"\\v\00", align 1
@.str.162 = private unnamed_addr constant [3 x i8] c"\\?\00", align 1
@.str.163 = private unnamed_addr constant [8 x i8] c"\\%c%c%c\00", align 1

; Function Attrs: nounwind uwtable
define internal void @ir_print_escaped_str(ptr noundef %0, i64 noundef %1, ptr noundef %2) #0 {
  %4 = alloca ptr, align 8
  %5 = alloca i64, align 8
  %6 = alloca ptr, align 8
  %7 = alloca i8, align 1
  store ptr %0, ptr %4, align 8
  store i64 %1, ptr %5, align 8
  store ptr %2, ptr %6, align 8
  br label %8

8:                                                ; preds = %79, %3
  %9 = load i64, ptr %5, align 8
  %10 = icmp ugt i64 %9, 0
  br i1 %10, label %11, label %84

11:                                               ; preds = %8
  %12 = load ptr, ptr %4, align 8
  %13 = load i8, ptr %12, align 1
  store i8 %13, ptr %7, align 1
  %14 = load i8, ptr %7, align 1
  %15 = sext i8 %14 to i32
  switch i32 %15, label %52 [
    i32 92, label %16
    i32 39, label %19
    i32 34, label %22
    i32 7, label %25
    i32 8, label %28
    i32 27, label %31
    i32 12, label %34
    i32 10, label %37
    i32 13, label %40
    i32 9, label %43
    i32 11, label %46
    i32 63, label %49
  ]

16:                                               ; preds = %11
  %17 = load ptr, ptr %6, align 8
  %18 = call i32 @fputs(ptr noundef @.str.151, ptr noundef %17)
  br label %79

19:                                               ; preds = %11
  %20 = load ptr, ptr %6, align 8
  %21 = call i32 @fputs(ptr noundef @.str.152, ptr noundef %20)
  br label %79

22:                                               ; preds = %11
  %23 = load ptr, ptr %6, align 8
  %24 = call i32 @fputs(ptr noundef @.str.153, ptr noundef %23)
  br label %79

25:                                               ; preds = %11
  %26 = load ptr, ptr %6, align 8
  %27 = call i32 @fputs(ptr noundef @.str.154, ptr noundef %26)
  br label %79

28:                                               ; preds = %11
  %29 = load ptr, ptr %6, align 8
  %30 = call i32 @fputs(ptr noundef @.str.155, ptr noundef %29)
  br label %79

31:                                               ; preds = %11
  %32 = load ptr, ptr %6, align 8
  %33 = call i32 @fputs(ptr noundef @.str.156, ptr noundef %32)
  br label %79

34:                                               ; preds = %11
  %35 = load ptr, ptr %6, align 8
  %36 = call i32 @fputs(ptr noundef @.str.157, ptr noundef %35)
  br label %79

37:                                               ; preds = %11
  %38 = load ptr, ptr %6, align 8
  %39 = call i32 @fputs(ptr noundef @.str.158, ptr noundef %38)
  br label %79

40:                                               ; preds = %11
  %41 = load ptr, ptr %6, align 8
  %42 = call i32 @fputs(ptr noundef @.str.159, ptr noundef %41)
  br label %79

43:                                               ; preds = %11
  %44 = load ptr, ptr %6, align 8
  %45 = call i32 @fputs(ptr noundef @.str.160, ptr noundef %44)
  br label %79

46:                                               ; preds = %11
  %47 = load ptr, ptr %6, align 8
  %48 = call i32 @fputs(ptr noundef @.str.161, ptr noundef %47)
  br label %79

49:                                               ; preds = %11
  %50 = load ptr, ptr %6, align 8
  %51 = call i32 @fputs(ptr noundef @.str.162, ptr noundef %50)
  br label %79

52:                                               ; preds = %11
  %53 = load i8, ptr %7, align 1
  %54 = sext i8 %53 to i32
  %55 = icmp slt i32 %54, 32
  br i1 %55, label %56, label %73

56:                                               ; preds = %52
  %57 = load ptr, ptr %6, align 8
  %58 = load i8, ptr %7, align 1
  %59 = sext i8 %58 to i32
  %60 = ashr i32 %59, 3
  %61 = srem i32 %60, 8
  %62 = add nsw i32 48, %61
  %63 = load i8, ptr %7, align 1
  %64 = sext i8 %63 to i32
  %65 = ashr i32 %64, 6
  %66 = srem i32 %65, 8
  %67 = add nsw i32 48, %66
  %68 = load i8, ptr %7, align 1
  %69 = sext i8 %68 to i32
  %70 = srem i32 %69, 8
  %71 = add nsw i32 48, %70
  %72 = call i32 (ptr, ptr, ...) @fprintf(ptr noundef %57, ptr noundef @.str.163, i32 noundef %62, i32 noundef %67, i32 noundef %71) #11
  br label %79

73:                                               ; preds = %52
  %74 = load i8, ptr %7, align 1
  %75 = sext i8 %74 to i32
  %76 = load ptr, ptr %6, align 8
  %77 = call i32 @fputc(i32 noundef %75, ptr noundef %76)
  br label %78

78:                                               ; preds = %73
  br label %79

79:                                               ; preds = %78, %56, %49, %46, %43, %40, %37, %34, %31, %28, %25, %22, %19, %16
  %80 = load ptr, ptr %4, align 8
  %81 = getelementptr inbounds i8, ptr %80, i32 1
  store ptr %81, ptr %4, align 8
  %82 = load i64, ptr %5, align 8
  %83 = add i64 %82, -1
  store i64 %83, ptr %5, align 8
  br label %8

84:                                               ; preds = %8
  ret void
}