; Function Attrs: nofree nounwind uwtable
define internal fastcc void @ir_print_escaped_str(ptr nocapture noundef readonly %0, i64 noundef %1, ptr nocapture noundef %2) unnamed_addr #2 {
  %.not28 = icmp eq i64 %1, 0
  br i1 %.not28, label %._crit_edge, label %.lr.ph

.lr.ph:                                           ; preds = %3, %41
  %.030 = phi ptr [ %42, %41 ], [ %0, %3 ]
  %.02329 = phi i64 [ %43, %41 ], [ %1, %3 ]
  %4 = load i8, ptr %.030, align 1
  %5 = sext i8 %4 to i32
  switch i8 %4, label %29 [
    i8 92, label %6
    i8 39, label %8
    i8 34, label %9
    i8 7, label %11
    i8 8, label %13
    i8 27, label %15
    i8 12, label %17
    i8 10, label %19
    i8 13, label %21
    i8 9, label %23
    i8 11, label %25
    i8 63, label %27
  ]

6:                                                ; preds = %.lr.ph
  %7 = tail call i64 @fwrite(ptr nonnull @.str.151, i64 2, i64 1, ptr %2)
  br label %41

8:                                                ; preds = %.lr.ph
  %fputc = tail call i32 @fputc(i32 39, ptr %2)
  br label %41

9:                                                ; preds = %.lr.ph
  %10 = tail call i64 @fwrite(ptr nonnull @.str.153, i64 2, i64 1, ptr %2)
  br label %41

11:                                               ; preds = %.lr.ph
  %12 = tail call i64 @fwrite(ptr nonnull @.str.154, i64 2, i64 1, ptr %2)
  br label %41

13:                                               ; preds = %.lr.ph
  %14 = tail call i64 @fwrite(ptr nonnull @.str.155, i64 2, i64 1, ptr %2)
  br label %41

15:                                               ; preds = %.lr.ph
  %16 = tail call i64 @fwrite(ptr nonnull @.str.156, i64 2, i64 1, ptr %2)
  br label %41

17:                                               ; preds = %.lr.ph
  %18 = tail call i64 @fwrite(ptr nonnull @.str.157, i64 2, i64 1, ptr %2)
  br label %41

19:                                               ; preds = %.lr.ph
  %20 = tail call i64 @fwrite(ptr nonnull @.str.158, i64 2, i64 1, ptr %2)
  br label %41

21:                                               ; preds = %.lr.ph
  %22 = tail call i64 @fwrite(ptr nonnull @.str.159, i64 2, i64 1, ptr %2)
  br label %41

23:                                               ; preds = %.lr.ph
  %24 = tail call i64 @fwrite(ptr nonnull @.str.160, i64 2, i64 1, ptr %2)
  br label %41

25:                                               ; preds = %.lr.ph
  %26 = tail call i64 @fwrite(ptr nonnull @.str.161, i64 2, i64 1, ptr %2)
  br label %41

27:                                               ; preds = %.lr.ph
  %28 = tail call i64 @fwrite(ptr nonnull @.str.162, i64 2, i64 1, ptr %2)
  br label %41

29:                                               ; preds = %.lr.ph
  %30 = icmp slt i8 %4, 32
  br i1 %30, label %31, label %39

31:                                               ; preds = %29
  %.lhs.trunc = ashr i8 %4, 3
  %32 = srem i8 %.lhs.trunc, 8
  %narrow = add nsw i8 %32, 48
  %33 = zext nneg i8 %narrow to i32
  %34 = ashr i32 %5, 6
  %35 = add nsw i32 %34, 48
  %36 = srem i8 %4, 8
  %narrow27 = add nsw i8 %36, 48
  %37 = zext nneg i8 %narrow27 to i32
  %38 = tail call i32 (ptr, ptr, ...) @fprintf(ptr noundef %2, ptr noundef nonnull @.str.163, i32 noundef %33, i32 noundef %35, i32 noundef %37) #20
  br label %41

39:                                               ; preds = %29
  %40 = tail call i32 @fputc(i32 noundef %5, ptr noundef %2)
  br label %41

41:                                               ; preds = %39, %31, %27, %25, %23, %21, %19, %17, %15, %13, %11, %9, %8, %6
  %42 = getelementptr inbounds i8, ptr %.030, i64 1
  %43 = add i64 %.02329, -1
  %.not = icmp eq i64 %43, 0
  br i1 %.not, label %._crit_edge, label %.lr.ph

._crit_edge:                                      ; preds = %41, %3
  ret void
}